; Function Attrs: mustprogress uwtable
define hidden noundef nonnull align 8 dereferenceable(8) ptr @_ZN3api7context4rcfmEv(ptr noundef nonnull align 8 dereferenceable(3056) %0) local_unnamed_addr #3 align 2 personality ptr @__gxx_personality_v0 {
  %2 = alloca %class.params_ref, align 8
  %3 = getelementptr inbounds nuw i8, ptr %0, i64 3048
  %4 = load ptr, ptr %3, align 8, !tbaa !425
  %5 = icmp eq ptr %4, null
  br i1 %5, label %6, label %17

6:                                                ; preds = %1
  %7 = tail call noalias noundef ptr @_ZN6memory8allocateEm(i64 noundef 8)
  %8 = getelementptr inbounds nuw i8, ptr %0, i64 1672
  %9 = getelementptr inbounds nuw i8, ptr %0, i64 2320
  call void @llvm.lifetime.start.p0(i64 8, ptr nonnull %2) #28
  store ptr null, ptr %2, align 8, !tbaa !227
  invoke void @_ZN11realclosure7managerC1ER8reslimitR11mpq_managerILb0EERK10params_refP22small_object_allocator(ptr noundef nonnull align 8 dereferenceable(8) %7, ptr noundef nonnull align 8 dereferenceable(40) %8, ptr noundef nonnull align 8 dereferenceable(728) %9, ptr noundef nonnull align 8 dereferenceable(8) %2, ptr noundef null)
          to label %10 unwind label %15

10:                                               ; preds = %6
  %11 = load ptr, ptr %3, align 8, !tbaa !425
  %.not.i = icmp eq ptr %11, %7
  br i1 %.not.i, label %_ZN10scoped_ptrIN11realclosure7managerEEaSEPS1_.exit, label %12

12:                                               ; preds = %10
  %13 = icmp eq ptr %11, null
  br i1 %13, label %_Z7deallocIN11realclosure7managerEEvPT_.exit.i, label %14

14:                                               ; preds = %12
  call void @_ZN11realclosure7managerD1Ev(ptr noundef nonnull align 8 dereferenceable(8) %11) #28
  invoke void @_ZN6memory10deallocateEPv(ptr noundef nonnull %11)
          to label %_Z7deallocIN11realclosure7managerEEvPT_.exit.i unwind label %15

_Z7deallocIN11realclosure7managerEEvPT_.exit.i:   ; preds = %14, %12
  store ptr %7, ptr %3, align 8, !tbaa !425
  br label %_ZN10scoped_ptrIN11realclosure7managerEEaSEPS1_.exit

_ZN10scoped_ptrIN11realclosure7managerEEaSEPS1_.exit: ; preds = %_Z7deallocIN11realclosure7managerEEvPT_.exit.i, %10
  call void @_ZN10params_refD1Ev(ptr noundef nonnull align 8 dereferenceable(8) %2) #28
  call void @llvm.lifetime.end.p0(i64 8, ptr nonnull %2) #28
  %.pre = load ptr, ptr %3, align 8, !tbaa !425
  br label %17

15:                                               ; preds = %14, %6
  %16 = landingpad { ptr, i32 }
          cleanup
  call void @_ZN10params_refD1Ev(ptr noundef nonnull align 8 dereferenceable(8) %2) #28
  call void @llvm.lifetime.end.p0(i64 8, ptr nonnull %2) #28
  resume { ptr, i32 } %16

17:                                               ; preds = %_ZN10scoped_ptrIN11realclosure7managerEEaSEPS1_.exit, %1
  %18 = phi ptr [ %.pre, %_ZN10scoped_ptrIN11realclosure7managerEEaSEPS1_.exit ], [ %4, %1 ]
  ret ptr %18
}